; Function Attrs: mustprogress uwtable
define void @_ZNK10open_spiel19matching_pennies_3p22MatchingPennies3pState14ActionToStringB5cxx11Eil(ptr dead_on_unwind noalias writable sret(%"class.std::__cxx11::basic_string") align 8 %0, ptr nocapture nonnull readnone align 8 %1, i32 %2, i64 noundef %3) unnamed_addr #3 align 2 personality ptr @__gxx_personality_v0 {
  %5 = alloca %"class.std::allocator", align 1
  %6 = alloca %"class.std::allocator", align 1
  %7 = alloca %"class.std::__cxx11::basic_string", align 8
  %8 = alloca %"class.std::allocator", align 1
  switch i64 %3, label %21 [
    i64 0, label %9
    i64 1, label %15
  ]

9:                                                ; preds = %4
  call void @_ZNSaIcEC1Ev(ptr noundef nonnull align 1 dereferenceable(1) %5) #23
  %10 = invoke noundef ptr @_ZNSt7__cxx1112basic_stringIcSt11char_traitsIcESaIcEE13_M_local_dataEv(ptr noundef nonnull align 8 dereferenceable(32) %0)
          to label %.noexc unwind label %13

.noexc:                                           ; preds = %9
  invoke void @_ZNSt7__cxx1112basic_stringIcSt11char_traitsIcESaIcEE12_Alloc_hiderC1EPcRKS3_(ptr noundef nonnull align 8 dereferenceable(8) %0, ptr noundef %10, ptr noundef nonnull align 1 dereferenceable(1) %5)
          to label %.noexc6 unwind label %13

.noexc6:                                          ; preds = %.noexc
  invoke void @_ZNSt7__cxx1112basic_stringIcSt11char_traitsIcESaIcEE12_M_constructIPKcEEvT_S8_St20forward_iterator_tag(ptr noundef nonnull align 8 dereferenceable(32) %0, ptr noundef nonnull @.str.5, ptr noundef nonnull getelementptr inbounds (i8, ptr @.str.5, i64 5))
          to label %_ZNSt7__cxx1112basic_stringIcSt11char_traitsIcESaIcEEC2IS3_EEPKcRKS3_.exit unwind label %11

11:                                               ; preds = %.noexc6
  %12 = landingpad { ptr, i32 }
          cleanup
  call void @_ZNSaIcED2Ev(ptr noundef nonnull align 1 dereferenceable(1) %0) #23
  br label %.body

13:                                               ; preds = %.noexc, %9
  %14 = landingpad { ptr, i32 }
          cleanup
  br label %.body

15:                                               ; preds = %4
  call void @_ZNSaIcEC1Ev(ptr noundef nonnull align 1 dereferenceable(1) %6) #23
  %16 = invoke noundef ptr @_ZNSt7__cxx1112basic_stringIcSt11char_traitsIcESaIcEE13_M_local_dataEv(ptr noundef nonnull align 8 dereferenceable(32) %0)
          to label %.noexc7 unwind label %19

.noexc7:                                          ; preds = %15
  invoke void @_ZNSt7__cxx1112basic_stringIcSt11char_traitsIcESaIcEE12_Alloc_hiderC1EPcRKS3_(ptr noundef nonnull align 8 dereferenceable(8) %0, ptr noundef %16, ptr noundef nonnull align 1 dereferenceable(1) %6)
          to label %.noexc8 unwind label %19

.noexc8:                                          ; preds = %.noexc7
  invoke void @_ZNSt7__cxx1112basic_stringIcSt11char_traitsIcESaIcEE12_M_constructIPKcEEvT_S8_St20forward_iterator_tag(ptr noundef nonnull align 8 dereferenceable(32) %0, ptr noundef nonnull @.str.6, ptr noundef nonnull getelementptr inbounds (i8, ptr @.str.6, i64 5))
          to label %_ZNSt7__cxx1112basic_stringIcSt11char_traitsIcESaIcEEC2IS3_EEPKcRKS3_.exit unwind label %17

17:                                               ; preds = %.noexc8
  %18 = landingpad { ptr, i32 }
          cleanup
  call void @_ZNSaIcED2Ev(ptr noundef nonnull align 1 dereferenceable(1) %0) #23
  br label %.body

19:                                               ; preds = %.noexc7, %15
  %20 = landingpad { ptr, i32 }
          cleanup
  br label %.body

21:                                               ; preds = %4
  call void @_ZNSaIcEC1Ev(ptr noundef nonnull align 1 dereferenceable(1) %8) #23
  invoke void @_ZNSt7__cxx1112basic_stringIcSt11char_traitsIcESaIcEEC2IS3_EEPKcRKS3_(ptr noundef nonnull align 8 dereferenceable(32) %7, ptr noundef nonnull @.str.7, ptr noundef nonnull align 1 dereferenceable(1) %8)
          to label %22 unwind label %24

22:                                               ; preds = %21
  invoke void @_ZN10open_spiel15SpielFatalErrorERKNSt7__cxx1112basic_stringIcSt11char_traitsIcESaIcEEE(ptr noundef nonnull align 8 dereferenceable(32) %7) #22
          to label %23 unwind label %26

23:                                               ; preds = %22
  unreachable

24:                                               ; preds = %21
  %25 = landingpad { ptr, i32 }
          cleanup
  br label %.body

26:                                               ; preds = %22
  %27 = landingpad { ptr, i32 }
          cleanup
  call void @_ZNSt7__cxx1112basic_stringIcSt11char_traitsIcESaIcEED1Ev(ptr noundef nonnull align 8 dereferenceable(32) %7) #23
  br label %.body

_ZNSt7__cxx1112basic_stringIcSt11char_traitsIcESaIcEEC2IS3_EEPKcRKS3_.exit: ; preds = %.noexc8, %.noexc6
  %.sink = phi ptr [ %5, %.noexc6 ], [ %6, %.noexc8 ]
  call void @_ZNSaIcED1Ev(ptr noundef nonnull align 1 dereferenceable(1) %.sink) #23
  ret void

.body:                                            ; preds = %24, %26, %19, %17, %13, %11
  %.sink12 = phi ptr [ %5, %11 ], [ %5, %13 ], [ %6, %17 ], [ %6, %19 ], [ %8, %26 ], [ %8, %24 ]
  %.pn.pn = phi { ptr, i32 } [ %12, %11 ], [ %14, %13 ], [ %18, %17 ], [ %20, %19 ], [ %27, %26 ], [ %25, %24 ]
  call void @_ZNSaIcED1Ev(ptr noundef nonnull align 1 dereferenceable(1) %.sink12) #23
  resume { ptr, i32 } %.pn.pn
}